target datalayout = "e-m:e-p270:32:32-p271:32:32-p272:64:64-i64:64-i128:128-f80:128-n8:16:32:64-S128"
target triple = "x86_64-pc-linux-gnu"

%struct._object = type { %union.anon, ptr }
%union.anon = type { i64 }
%struct.PyVarObject = type { %struct._object, i64 }
%struct.anon = type { i32, i32 }
%struct.PyListObject = type { %struct.PyVarObject, ptr, i64 }

; Function Attrs: alwaysinline nounwind uwtable
define internal i32 @_Py_IsImmortal(ptr noundef %0) #6 {
  %2 = alloca ptr, align 8
  store ptr %0, ptr %2, align 8, !tbaa !4
  %3 = load ptr, ptr %2, align 8, !tbaa !4
  %4 = getelementptr inbounds nuw %struct._object, ptr %3, i32 0, i32 0
  %5 = getelementptr inbounds nuw %struct.anon, ptr %4, i32 0, i32 0
  %6 = load i32, ptr %5, align 8, !tbaa !52
  %7 = icmp slt i32 %6, 0
  %8 = zext i1 %7 to i32
  ret i32 %8
}

; Function Attrs: inlinehint nounwind uwtable
define internal void @PyList_SET_ITEM(ptr noundef %0, i64 noundef %1, ptr noundef %2) #3 {
  %4 = alloca ptr, align 8
  %5 = alloca i64, align 8
  %6 = alloca ptr, align 8
  %7 = alloca ptr, align 8
  store ptr %0, ptr %4, align 8, !tbaa !4
  store i64 %1, ptr %5, align 8, !tbaa !18
  store ptr %2, ptr %6, align 8, !tbaa !4
  call void @llvm.lifetime.start.p0(i64 8, ptr %7) #9
  %8 = load ptr, ptr %4, align 8, !tbaa !4
  store ptr %8, ptr %7, align 8, !tbaa !9
  %9 = load ptr, ptr %6, align 8, !tbaa !4
  %10 = load ptr, ptr %7, align 8, !tbaa !9
  %11 = getelementptr inbounds nuw %struct.PyListObject, ptr %10, i32 0, i32 1
  %12 = load ptr, ptr %11, align 8, !tbaa !56
  %13 = load i64, ptr %5, align 8, !tbaa !18
  %14 = getelementptr ptr, ptr %12, i64 %13
  store ptr %9, ptr %14, align 8, !tbaa !4
  call void @llvm.lifetime.end.p0(i64 8, ptr %7) #9
  ret void
}

; Function Attrs: alwaysinline nounwind uwtable
define internal void @Py_DECREF(ptr noundef %0) #6 {
  %2 = alloca ptr, align 8
  store ptr %0, ptr %2, align 8, !tbaa !4
  %3 = load ptr, ptr %2, align 8, !tbaa !4
  %4 = call i32 @_Py_IsImmortal(ptr noundef %3)
  %5 = icmp ne i32 %4, 0
  br i1 %5, label %6, label %7

6:                                                ; preds = %1
  br label %16

7:                                                ; preds = %1
  %8 = load ptr, ptr %2, align 8, !tbaa !4
  %9 = getelementptr inbounds nuw %struct._object, ptr %8, i32 0, i32 0
  %10 = getelementptr inbounds nuw %struct.anon, ptr %9, i32 0, i32 0
  %11 = load i32, ptr %10, align 8, !tbaa !52
  %12 = add i32 %11, -1
  store i32 %12, ptr %10, align 8, !tbaa !52
  %13 = icmp eq i32 %12, 0
  br i1 %13, label %14, label %16

14:                                               ; preds = %7
  %15 = load ptr, ptr %2, align 8, !tbaa !4
  call void @_Py_Dealloc(ptr noundef %15)
  br label %16

16:                                               ; preds = %6, %14, %7
  ret void
}

; Function Attrs: nounwind uwtable
define internal ptr @copy_grouping(ptr noundef %0) #0 {
  %2 = alloca ptr, align 8
  %3 = alloca ptr, align 8
  %4 = alloca i32, align 4
  %5 = alloca ptr, align 8
  %6 = alloca ptr, align 8
  %7 = alloca i32, align 4
  store ptr %0, ptr %3, align 8, !tbaa !20
  call void @llvm.lifetime.start.p0(i64 4, ptr %4) #9
  call void @llvm.lifetime.start.p0(i64 8, ptr %5) #9
  call void @llvm.lifetime.start.p0(i64 8, ptr %6) #9
  store ptr null, ptr %6, align 8, !tbaa !4
  %8 = load ptr, ptr %3, align 8, !tbaa !20
  %9 = getelementptr i8, ptr %8, i64 0
  %10 = load i8, ptr %9, align 1, !tbaa !52
  %11 = sext i8 %10 to i32
  %12 = icmp eq i32 %11, 0
  br i1 %12, label %13, label %15

13:                                               ; preds = %1
  %14 = call ptr @PyList_New(i64 noundef 0)
  store ptr %14, ptr %2, align 8
  store i32 1, ptr %7, align 4
  br label %86

15:                                               ; preds = %1
  store i32 0, ptr %4, align 4, !tbaa !14
  br label %16

16:                                               ; preds = %35, %15
  %17 = load ptr, ptr %3, align 8, !tbaa !20
  %18 = load i32, ptr %4, align 4, !tbaa !14
  %19 = sext i32 %18 to i64
  %20 = getelementptr i8, ptr %17, i64 %19
  %21 = load i8, ptr %20, align 1, !tbaa !52
  %22 = sext i8 %21 to i32
  %23 = icmp ne i32 %22, 0
  br i1 %23, label %24, label %32

24:                                               ; preds = %16
  %25 = load ptr, ptr %3, align 8, !tbaa !20
  %26 = load i32, ptr %4, align 4, !tbaa !14
  %27 = sext i32 %26 to i64
  %28 = getelementptr i8, ptr %25, i64 %27
  %29 = load i8, ptr %28, align 1, !tbaa !52
  %30 = sext i8 %29 to i32
  %31 = icmp ne i32 %30, 127
  br label %32

32:                                               ; preds = %24, %16
  %33 = phi i1 [ false, %16 ], [ %31, %24 ]
  br i1 %33, label %34, label %38

34:                                               ; preds = %32
  br label %35

35:                                               ; preds = %34
  %36 = load i32, ptr %4, align 4, !tbaa !14
  %37 = add i32 %36, 1
  store i32 %37, ptr %4, align 4, !tbaa !14
  br label %16, !llvm.loop !53

38:                                               ; preds = %32
  %39 = load i32, ptr %4, align 4, !tbaa !14
  %40 = add i32 %39, 1
  %41 = sext i32 %40 to i64
  %42 = call ptr @PyList_New(i64 noundef %41)
  store ptr %42, ptr %5, align 8, !tbaa !4
  %43 = load ptr, ptr %5, align 8, !tbaa !4
  %44 = icmp ne ptr %43, null
  br i1 %44, label %46, label %45

45:                                               ; preds = %38
  store ptr null, ptr %2, align 8
  store i32 1, ptr %7, align 4
  br label %86

46:                                               ; preds = %38
  store i32 -1, ptr %4, align 4, !tbaa !14
  br label %47

47:                                               ; preds = %82, %46
  %48 = load i32, ptr %4, align 4, !tbaa !14
  %49 = add i32 %48, 1
  store i32 %49, ptr %4, align 4, !tbaa !14
  %50 = load ptr, ptr %3, align 8, !tbaa !20
  %51 = load i32, ptr %4, align 4, !tbaa !14
  %52 = sext i32 %51 to i64
  %53 = getelementptr i8, ptr %50, i64 %52
  %54 = load i8, ptr %53, align 1, !tbaa !52
  %55 = sext i8 %54 to i64
  %56 = call ptr @PyLong_FromLong(i64 noundef %55)
  store ptr %56, ptr %6, align 8, !tbaa !4
  %57 = load ptr, ptr %6, align 8, !tbaa !4
  %58 = icmp eq ptr %57, null
  br i1 %58, label %59, label %61

59:                                               ; preds = %47
  %60 = load ptr, ptr %5, align 8, !tbaa !4
  call void @Py_DECREF(ptr noundef %60)
  store ptr null, ptr %2, align 8
  store i32 1, ptr %7, align 4
  br label %86

61:                                               ; preds = %47
  %62 = load ptr, ptr %5, align 8, !tbaa !4
  %63 = load i32, ptr %4, align 4, !tbaa !14
  %64 = sext i32 %63 to i64
  %65 = load ptr, ptr %6, align 8, !tbaa !4
  call void @PyList_SET_ITEM(ptr noundef %62, i64 noundef %64, ptr noundef %65)
  br label %66

66:                                               ; preds = %61
  %67 = load ptr, ptr %3, align 8, !tbaa !20
  %68 = load i32, ptr %4, align 4, !tbaa !14
  %69 = sext i32 %68 to i64
  %70 = getelementptr i8, ptr %67, i64 %69
  %71 = load i8, ptr %70, align 1, !tbaa !52
  %72 = sext i8 %71 to i32
  %73 = icmp ne i32 %72, 0
  br i1 %73, label %74, label %82

74:                                               ; preds = %66
  %75 = load ptr, ptr %3, align 8, !tbaa !20
  %76 = load i32, ptr %4, align 4, !tbaa !14
  %77 = sext i32 %76 to i64
  %78 = getelementptr i8, ptr %75, i64 %77
  %79 = load i8, ptr %78, align 1, !tbaa !52
  %80 = sext i8 %79 to i32
  %81 = icmp ne i32 %80, 127
  br label %82

82:                                               ; preds = %74, %66
  %83 = phi i1 [ false, %66 ], [ %81, %74 ]
  br i1 %83, label %47, label %84, !llvm.loop !55

84:                                               ; preds = %82
  %85 = load ptr, ptr %5, align 8, !tbaa !4
  store ptr %85, ptr %2, align 8
  store i32 1, ptr %7, align 4
  br label %86

86:                                               ; preds = %84, %59, %45, %13
  call void @llvm.lifetime.end.p0(i64 8, ptr %6) #9
  call void @llvm.lifetime.end.p0(i64 8, ptr %5) #9
  call void @llvm.lifetime.end.p0(i64 4, ptr %4) #9
  %87 = load ptr, ptr %2, align 8
  ret ptr %87
}